target datalayout = "e-m:e-p270:32:32-p271:32:32-p272:64:64-i64:64-i128:128-f80:128-n8:16:32:64-S128"
target triple = "x86_64-pc-linux-gnu"

%struct.mspack_system = type { ptr, ptr, ptr, ptr, ptr, ptr, ptr, ptr, ptr, ptr, ptr }
%struct.mschm_decompressor_p = type { %struct.mschm_decompressor, ptr, ptr, i32 }
%struct.mschm_decompressor = type { ptr, ptr, ptr, ptr, ptr, ptr }

@mspack_default_system = external global ptr, align 8

; Function Attrs: nounwind uwtable
define ptr @mspack_create_chm_decompressor(ptr noundef %0) #0 {
  %2 = alloca ptr, align 8
  %3 = alloca ptr, align 8
  %4 = alloca ptr, align 8
  store ptr %0, ptr %3, align 8
  store ptr null, ptr %4, align 8
  %5 = load ptr, ptr %3, align 8
  %6 = icmp ne ptr %5, null
  br i1 %6, label %9, label %7

7:                                                ; preds = %1
  %8 = load ptr, ptr @mspack_default_system, align 8
  store ptr %8, ptr %3, align 8
  br label %9

9:                                                ; preds = %7, %1
  %10 = load ptr, ptr %3, align 8
  %11 = call i32 @mspack_valid_system(ptr noundef %10)
  %12 = icmp ne i32 %11, 0
  br i1 %12, label %14, label %13

13:                                               ; preds = %9
  store ptr null, ptr %2, align 8
  br label %49

14:                                               ; preds = %9
  %15 = load ptr, ptr %3, align 8
  %16 = getelementptr inbounds %struct.mspack_system, ptr %15, i32 0, i32 7
  %17 = load ptr, ptr %16, align 8
  %18 = load ptr, ptr %3, align 8
  %19 = call ptr %17(ptr noundef %18, i64 noundef 72)
  store ptr %19, ptr %4, align 8
  %20 = icmp ne ptr %19, null
  br i1 %20, label %21, label %47

21:                                               ; preds = %14
  %22 = load ptr, ptr %4, align 8
  %23 = getelementptr inbounds %struct.mschm_decompressor_p, ptr %22, i32 0, i32 0
  %24 = getelementptr inbounds %struct.mschm_decompressor, ptr %23, i32 0, i32 0
  store ptr @chmd_open, ptr %24, align 8
  %25 = load ptr, ptr %4, align 8
  %26 = getelementptr inbounds %struct.mschm_decompressor_p, ptr %25, i32 0, i32 0
  %27 = getelementptr inbounds %struct.mschm_decompressor, ptr %26, i32 0, i32 1
  store ptr @chmd_close, ptr %27, align 8
  %28 = load ptr, ptr %4, align 8
  %29 = getelementptr inbounds %struct.mschm_decompressor_p, ptr %28, i32 0, i32 0
  %30 = getelementptr inbounds %struct.mschm_decompressor, ptr %29, i32 0, i32 2
  store ptr @chmd_extract, ptr %30, align 8
  %31 = load ptr, ptr %4, align 8
  %32 = getelementptr inbounds %struct.mschm_decompressor_p, ptr %31, i32 0, i32 0
  %33 = getelementptr inbounds %struct.mschm_decompressor, ptr %32, i32 0, i32 3
  store ptr @chmd_error, ptr %33, align 8
  %34 = load ptr, ptr %4, align 8
  %35 = getelementptr inbounds %struct.mschm_decompressor_p, ptr %34, i32 0, i32 0
  %36 = getelementptr inbounds %struct.mschm_decompressor, ptr %35, i32 0, i32 4
  store ptr @chmd_fast_open, ptr %36, align 8
  %37 = load ptr, ptr %4, align 8
  %38 = getelementptr inbounds %struct.mschm_decompressor_p, ptr %37, i32 0, i32 0
  %39 = getelementptr inbounds %struct.mschm_decompressor, ptr %38, i32 0, i32 5
  store ptr @chmd_fast_find, ptr %39, align 8
  %40 = load ptr, ptr %3, align 8
  %41 = load ptr, ptr %4, align 8
  %42 = getelementptr inbounds %struct.mschm_decompressor_p, ptr %41, i32 0, i32 1
  store ptr %40, ptr %42, align 8
  %43 = load ptr, ptr %4, align 8
  %44 = getelementptr inbounds %struct.mschm_decompressor_p, ptr %43, i32 0, i32 3
  store i32 0, ptr %44, align 8
  %45 = load ptr, ptr %4, align 8
  %46 = getelementptr inbounds %struct.mschm_decompressor_p, ptr %45, i32 0, i32 2
  store ptr null, ptr %46, align 8
  br label %47

47:                                               ; preds = %21, %14
  %48 = load ptr, ptr %4, align 8
  store ptr %48, ptr %2, align 8
  br label %49

49:                                               ; preds = %47, %13
  %50 = load ptr, ptr %2, align 8
  ret ptr %50
}