; Function Attrs: nounwind uwtable
define ptr @mspack_create_chm_decompressor(ptr noundef %0) local_unnamed_addr #0 {
  %.not = icmp eq ptr %0, null
  %2 = load ptr, ptr @mspack_default_system, align 8
  %spec.select = select i1 %.not, ptr %2, ptr %0
  %3 = tail call i32 @mspack_valid_system(ptr noundef %spec.select) #12
  %.not19 = icmp eq i32 %3, 0
  br i1 %.not19, label %17, label %4

4:                                                ; preds = %1
  %5 = getelementptr inbounds i8, ptr %spec.select, i64 56
  %6 = load ptr, ptr %5, align 8
  %7 = tail call ptr %6(ptr noundef %spec.select, i64 noundef 72) #12
  %.not20 = icmp eq ptr %7, null
  br i1 %.not20, label %17, label %8

8:                                                ; preds = %4
  store ptr @chmd_open, ptr %7, align 8
  %9 = getelementptr inbounds i8, ptr %7, i64 8
  store ptr @chmd_close, ptr %9, align 8
  %10 = getelementptr inbounds i8, ptr %7, i64 16
  store ptr @chmd_extract, ptr %10, align 8
  %11 = getelementptr inbounds i8, ptr %7, i64 24
  store ptr @chmd_error, ptr %11, align 8
  %12 = getelementptr inbounds i8, ptr %7, i64 32
  store ptr @chmd_fast_open, ptr %12, align 8
  %13 = getelementptr inbounds i8, ptr %7, i64 40
  store ptr @chmd_fast_find, ptr %13, align 8
  %14 = getelementptr inbounds i8, ptr %7, i64 48
  store ptr %spec.select, ptr %14, align 8
  %15 = getelementptr inbounds i8, ptr %7, i64 64
  store i32 0, ptr %15, align 8
  %16 = getelementptr inbounds i8, ptr %7, i64 56
  store ptr null, ptr %16, align 8
  br label %17

17:                                               ; preds = %4, %8, %1
  %.016 = phi ptr [ null, %1 ], [ %7, %8 ], [ null, %4 ]
  ret ptr %.016
}